; Function Attrs: nounwind uwtable
define void @Acec_CheckXors(ptr noundef readonly captures(none) %0, ptr noundef readonly captures(none) %1) local_unnamed_addr #0 {
  %3 = getelementptr i8, ptr %0, i64 24
  %.val = load i32, ptr %3, align 8, !tbaa !3
  %4 = add i32 %.val, -1
  %or.cond.i = icmp ult i32 %4, 15
  %spec.store.select.i = select i1 %or.cond.i, i32 16, i32 %.val
  %.not.i = icmp eq i32 %spec.store.select.i, 0
  br i1 %.not.i, label %Vec_IntAlloc.exit, label %5

5:                                                ; preds = %2
  %6 = sext i32 %spec.store.select.i to i64
  %7 = shl nsw i64 %6, 2
  %8 = tail call noalias ptr @malloc(i64 noundef %7) #20
  br label %Vec_IntAlloc.exit

Vec_IntAlloc.exit:                                ; preds = %2, %5
  %9 = phi ptr [ %8, %5 ], [ null, %2 ]
  %10 = getelementptr i8, ptr %1, i64 4
  %.val28 = load i32, ptr %10, align 4, !tbaa !28
  %11 = icmp sgt i32 %.val28, 0
  br i1 %11, label %.lr.ph, label %._crit_edge

.lr.ph:                                           ; preds = %Vec_IntAlloc.exit
  %12 = getelementptr i8, ptr %1, i64 8
  %.val30 = load ptr, ptr %12, align 8, !tbaa !29
  %13 = add nsw i32 %.val28, -1
  %14 = lshr i32 %13, 2
  %15 = add nuw nsw i32 %14, 1
  %wide.trip.count = zext nneg i32 %15 to i64
  br label %16

16:                                               ; preds = %.lr.ph, %28
  %indvars.iv37 = phi i64 [ 0, %.lr.ph ], [ %indvars.iv.next38, %28 ]
  %indvars.iv = phi i64 [ 0, %.lr.ph ], [ %indvars.iv.next, %28 ]
  %17 = or disjoint i64 %indvars.iv, 3
  %18 = getelementptr inbounds nuw i32, ptr %.val30, i64 %17
  %19 = load i32, ptr %18, align 4, !tbaa !30
  %20 = icmp eq i32 %19, 0
  br i1 %20, label %21, label %28

21:                                               ; preds = %16
  %22 = getelementptr inbounds nuw i32, ptr %.val30, i64 %indvars.iv
  %23 = load i32, ptr %22, align 4, !tbaa !30
  %24 = sext i32 %23 to i64
  %25 = getelementptr inbounds i32, ptr %9, i64 %24
  %26 = load i32, ptr %25, align 4, !tbaa !30
  %27 = add nsw i32 %26, 1
  store i32 %27, ptr %25, align 4, !tbaa !30
  br label %28

28:                                               ; preds = %16, %21
  %indvars.iv.next38 = add nuw nsw i64 %indvars.iv37, 1
  %indvars.iv.next = add nuw nsw i64 %indvars.iv, 4
  %exitcond.not = icmp eq i64 %indvars.iv.next38, %wide.trip.count
  br i1 %exitcond.not, label %._crit_edge, label %16, !llvm.loop !31

._crit_edge:                                      ; preds = %28, %Vec_IntAlloc.exit
  %puts = tail call i32 @puts(ptr nonnull dereferenceable(1) @str)
  %.not.i35 = icmp eq ptr %9, null
  br i1 %.not.i35, label %Vec_IntFree.exit, label %29

29:                                               ; preds = %._crit_edge
  tail call void @free(ptr noundef nonnull %9) #21
  br label %Vec_IntFree.exit

Vec_IntFree.exit:                                 ; preds = %._crit_edge, %29
  ret void
}